target datalayout = "e-m:e-p270:32:32-p271:32:32-p272:64:64-i64:64-i128:128-f80:128-n8:16:32:64-S128"
target triple = "x86_64-pc-linux-gnu"

; Function Attrs: nounwind uwtable
define dso_local zeroext i1 @member_can_set_role(i32 noundef %0, i32 noundef %1) #0 {
  %3 = alloca i1, align 1
  %4 = alloca i32, align 4
  %5 = alloca i32, align 4
  store i32 %0, ptr %4, align 4
  store i32 %1, ptr %5, align 4
  %6 = load i32, ptr %4, align 4
  %7 = load i32, ptr %5, align 4
  %8 = icmp eq i32 %6, %7
  br i1 %8, label %9, label %10

9:                                                ; preds = %2
  store i1 true, ptr %3, align 1
  br label %19

10:                                               ; preds = %2
  %11 = load i32, ptr %4, align 4
  %12 = call zeroext i1 @superuser_arg(i32 noundef %11)
  br i1 %12, label %13, label %14

13:                                               ; preds = %10
  store i1 true, ptr %3, align 1
  br label %19

14:                                               ; preds = %10
  %15 = load i32, ptr %4, align 4
  %16 = call ptr @roles_is_member_of(i32 noundef %15, i32 noundef 2, i32 noundef 0, ptr noundef null)
  %17 = load i32, ptr %5, align 4
  %18 = call zeroext i1 @list_member_oid(ptr noundef %16, i32 noundef %17)
  store i1 %18, ptr %3, align 1
  br label %19

19:                                               ; preds = %14, %13, %9
  %20 = load i1, ptr %3, align 1
  ret i1 %20
}

; Function Attrs: nounwind uwtable
define dso_local zeroext i1 @has_privs_of_role(i32 noundef %0, i32 noundef %1) #0 {
  %3 = alloca i1, align 1
  %4 = alloca i32, align 4
  %5 = alloca i32, align 4
  store i32 %0, ptr %4, align 4
  store i32 %1, ptr %5, align 4
  %6 = load i32, ptr %4, align 4
  %7 = load i32, ptr %5, align 4
  %8 = icmp eq i32 %6, %7
  br i1 %8, label %9, label %10

9:                                                ; preds = %2
  store i1 true, ptr %3, align 1
  br label %19

10:                                               ; preds = %2
  %11 = load i32, ptr %4, align 4
  %12 = call zeroext i1 @superuser_arg(i32 noundef %11)
  br i1 %12, label %13, label %14

13:                                               ; preds = %10
  store i1 true, ptr %3, align 1
  br label %19

14:                                               ; preds = %10
  %15 = load i32, ptr %4, align 4
  %16 = call ptr @roles_is_member_of(i32 noundef %15, i32 noundef 1, i32 noundef 0, ptr noundef null)
  %17 = load i32, ptr %5, align 4
  %18 = call zeroext i1 @list_member_oid(ptr noundef %16, i32 noundef %17)
  store i1 %18, ptr %3, align 1
  br label %19

19:                                               ; preds = %14, %13, %9
  %20 = load i1, ptr %3, align 1
  ret i1 %20
}

; Function Attrs: nounwind uwtable
define dso_local zeroext i1 @is_member_of_role(i32 noundef %0, i32 noundef %1) #0 {
  %3 = alloca i1, align 1
  %4 = alloca i32, align 4
  %5 = alloca i32, align 4
  store i32 %0, ptr %4, align 4
  store i32 %1, ptr %5, align 4
  %6 = load i32, ptr %4, align 4
  %7 = load i32, ptr %5, align 4
  %8 = icmp eq i32 %6, %7
  br i1 %8, label %9, label %10

9:                                                ; preds = %2
  store i1 true, ptr %3, align 1
  br label %19

10:                                               ; preds = %2
  %11 = load i32, ptr %4, align 4
  %12 = call zeroext i1 @superuser_arg(i32 noundef %11)
  br i1 %12, label %13, label %14

13:                                               ; preds = %10
  store i1 true, ptr %3, align 1
  br label %19

14:                                               ; preds = %10
  %15 = load i32, ptr %4, align 4
  %16 = call ptr @roles_is_member_of(i32 noundef %15, i32 noundef 0, i32 noundef 0, ptr noundef null)
  %17 = load i32, ptr %5, align 4
  %18 = call zeroext i1 @list_member_oid(ptr noundef %16, i32 noundef %17)
  store i1 %18, ptr %3, align 1
  br label %19

19:                                               ; preds = %14, %13, %9
  %20 = load i1, ptr %3, align 1
  ret i1 %20
}

; Function Attrs: nounwind uwtable
define dso_local zeroext i1 @is_admin_of_role(i32 noundef %0, i32 noundef %1) #0 {
  %3 = alloca i1, align 1
  %4 = alloca i32, align 4
  %5 = alloca i32, align 4
  %6 = alloca i32, align 4
  %7 = alloca i32, align 4
  store i32 %0, ptr %4, align 4
  store i32 %1, ptr %5, align 4
  call void @llvm.lifetime.start.p0(i64 4, ptr %6) #9
  %8 = load i32, ptr %4, align 4
  %9 = call zeroext i1 @superuser_arg(i32 noundef %8)
  br i1 %9, label %10, label %11

10:                                               ; preds = %2
  store i1 true, ptr %3, align 1
  store i32 1, ptr %7, align 4
  br label %22

11:                                               ; preds = %2
  %12 = load i32, ptr %4, align 4
  %13 = load i32, ptr %5, align 4
  %14 = icmp eq i32 %12, %13
  br i1 %14, label %15, label %16

15:                                               ; preds = %11
  store i1 false, ptr %3, align 1
  store i32 1, ptr %7, align 4
  br label %22

16:                                               ; preds = %11
  %17 = load i32, ptr %4, align 4
  %18 = load i32, ptr %5, align 4
  %19 = call ptr @roles_is_member_of(i32 noundef %17, i32 noundef 0, i32 noundef %18, ptr noundef %6)
  %20 = load i32, ptr %6, align 4
  %21 = icmp ne i32 %20, 0
  store i1 %21, ptr %3, align 1
  store i32 1, ptr %7, align 4
  br label %22

22:                                               ; preds = %16, %15, %10
  call void @llvm.lifetime.end.p0(i64 4, ptr %6) #9
  %23 = load i1, ptr %3, align 1
  ret i1 %23
}

; Function Attrs: nounwind uwtable
define internal i32 @pg_role_aclcheck(i32 noundef %0, i32 noundef %1, i64 noundef %2) #0 {
  %4 = alloca i32, align 4
  %5 = alloca i32, align 4
  %6 = alloca i32, align 4
  %7 = alloca i64, align 8
  store i32 %0, ptr %5, align 4
  store i32 %1, ptr %6, align 4
  store i64 %2, ptr %7, align 8
  %8 = load i64, ptr %7, align 8
  %9 = and i64 %8, 2199023255552
  %10 = icmp ne i64 %9, 0
  br i1 %10, label %11, label %17

11:                                               ; preds = %3
  %12 = load i32, ptr %6, align 4
  %13 = load i32, ptr %5, align 4
  %14 = call zeroext i1 @is_admin_of_role(i32 noundef %12, i32 noundef %13)
  br i1 %14, label %15, label %16

15:                                               ; preds = %11
  store i32 0, ptr %4, align 4
  br label %48

16:                                               ; preds = %11
  br label %17

17:                                               ; preds = %16, %3
  %18 = load i64, ptr %7, align 8
  %19 = and i64 %18, 512
  %20 = icmp ne i64 %19, 0
  br i1 %20, label %21, label %27

21:                                               ; preds = %17
  %22 = load i32, ptr %6, align 4
  %23 = load i32, ptr %5, align 4
  %24 = call zeroext i1 @is_member_of_role(i32 noundef %22, i32 noundef %23)
  br i1 %24, label %25, label %26

25:                                               ; preds = %21
  store i32 0, ptr %4, align 4
  br label %48

26:                                               ; preds = %21
  br label %27

27:                                               ; preds = %26, %17
  %28 = load i64, ptr %7, align 8
  %29 = and i64 %28, 256
  %30 = icmp ne i64 %29, 0
  br i1 %30, label %31, label %37

31:                                               ; preds = %27
  %32 = load i32, ptr %6, align 4
  %33 = load i32, ptr %5, align 4
  %34 = call zeroext i1 @has_privs_of_role(i32 noundef %32, i32 noundef %33)
  br i1 %34, label %35, label %36

35:                                               ; preds = %31
  store i32 0, ptr %4, align 4
  br label %48

36:                                               ; preds = %31
  br label %37

37:                                               ; preds = %36, %27
  %38 = load i64, ptr %7, align 8
  %39 = and i64 %38, 4096
  %40 = icmp ne i64 %39, 0
  br i1 %40, label %41, label %47

41:                                               ; preds = %37
  %42 = load i32, ptr %6, align 4
  %43 = load i32, ptr %5, align 4
  %44 = call zeroext i1 @member_can_set_role(i32 noundef %42, i32 noundef %43)
  br i1 %44, label %45, label %46

45:                                               ; preds = %41
  store i32 0, ptr %4, align 4
  br label %48

46:                                               ; preds = %41
  br label %47

47:                                               ; preds = %46, %37
  store i32 1, ptr %4, align 4
  br label %48

48:                                               ; preds = %47, %45, %35, %25, %15
  %49 = load i32, ptr %4, align 4
  ret i32 %49
}