; Function Attrs: nounwind uwtable
define internal fastcc range(i32 0, 2) i32 @pg_role_aclcheck(i32 noundef %0, i32 noundef %1, i64 noundef %2) unnamed_addr #0 {
  %4 = alloca i32, align 4
  %5 = and i64 %2, 2199023255552
  %.not = icmp eq i64 %5, 0
  br i1 %.not, label %12, label %6

6:                                                ; preds = %3
  call void @llvm.lifetime.start.p0(i64 4, ptr nonnull %4) #14
  %7 = tail call zeroext i1 @superuser_arg(i32 noundef %1) #14
  br i1 %7, label %is_admin_of_role.exit.thread, label %8

is_admin_of_role.exit.thread:                     ; preds = %6
  call void @llvm.lifetime.end.p0(i64 4, ptr nonnull %4) #14
  br label %is_member_of_role.exit.thread

8:                                                ; preds = %6
  %9 = icmp eq i32 %1, %0
  br i1 %9, label %is_admin_of_role.exit.thread20, label %is_admin_of_role.exit

is_admin_of_role.exit.thread20:                   ; preds = %8
  call void @llvm.lifetime.end.p0(i64 4, ptr nonnull %4) #14
  br label %12

is_admin_of_role.exit:                            ; preds = %8
  %10 = call fastcc ptr @roles_is_member_of(i32 noundef %1, i32 noundef 0, i32 noundef %0, ptr noundef nonnull %4)
  %11 = load i32, ptr %4, align 4
  %.not25 = icmp eq i32 %11, 0
  call void @llvm.lifetime.end.p0(i64 4, ptr nonnull %4) #14
  br i1 %.not25, label %12, label %is_member_of_role.exit.thread

12:                                               ; preds = %is_admin_of_role.exit.thread20, %is_admin_of_role.exit, %3
  %13 = and i64 %2, 512
  %.not13 = icmp eq i64 %13, 0
  br i1 %.not13, label %20, label %14

14:                                               ; preds = %12
  %15 = icmp eq i32 %1, %0
  br i1 %15, label %is_member_of_role.exit.thread, label %16

16:                                               ; preds = %14
  %17 = call zeroext i1 @superuser_arg(i32 noundef %1) #14
  br i1 %17, label %is_member_of_role.exit.thread, label %is_member_of_role.exit

is_member_of_role.exit:                           ; preds = %16
  %18 = call fastcc ptr @roles_is_member_of(i32 noundef %1, i32 noundef 0, i32 noundef 0, ptr noundef null)
  %19 = call zeroext i1 @list_member_oid(ptr noundef %18, i32 noundef %0) #14
  br i1 %19, label %is_member_of_role.exit.thread, label %20

20:                                               ; preds = %is_member_of_role.exit, %12
  %21 = and i64 %2, 256
  %.not14 = icmp eq i64 %21, 0
  br i1 %.not14, label %28, label %22

22:                                               ; preds = %20
  %23 = icmp eq i32 %1, %0
  br i1 %23, label %is_member_of_role.exit.thread, label %24

24:                                               ; preds = %22
  %25 = call zeroext i1 @superuser_arg(i32 noundef %1) #14
  br i1 %25, label %is_member_of_role.exit.thread, label %has_privs_of_role.exit

has_privs_of_role.exit:                           ; preds = %24
  %26 = call fastcc ptr @roles_is_member_of(i32 noundef %1, i32 noundef 1, i32 noundef 0, ptr noundef null)
  %27 = call zeroext i1 @list_member_oid(ptr noundef %26, i32 noundef %0) #14
  br i1 %27, label %is_member_of_role.exit.thread, label %28

28:                                               ; preds = %has_privs_of_role.exit, %20
  %29 = and i64 %2, 4096
  %.not15 = icmp eq i64 %29, 0
  br i1 %.not15, label %36, label %30

30:                                               ; preds = %28
  %31 = icmp eq i32 %1, %0
  br i1 %31, label %is_member_of_role.exit.thread, label %32

32:                                               ; preds = %30
  %33 = call zeroext i1 @superuser_arg(i32 noundef %1) #14
  br i1 %33, label %is_member_of_role.exit.thread, label %member_can_set_role.exit

member_can_set_role.exit:                         ; preds = %32
  %34 = call fastcc ptr @roles_is_member_of(i32 noundef %1, i32 noundef 2, i32 noundef 0, ptr noundef null)
  %35 = call zeroext i1 @list_member_oid(ptr noundef %34, i32 noundef %0) #14
  br i1 %35, label %is_member_of_role.exit.thread, label %36

36:                                               ; preds = %member_can_set_role.exit, %28
  br label %is_member_of_role.exit.thread

is_member_of_role.exit.thread:                    ; preds = %32, %30, %24, %22, %16, %14, %is_admin_of_role.exit.thread, %member_can_set_role.exit, %has_privs_of_role.exit, %is_member_of_role.exit, %is_admin_of_role.exit, %36
  %.0 = phi i32 [ 1, %36 ], [ 0, %is_admin_of_role.exit ], [ 0, %is_member_of_role.exit ], [ 0, %has_privs_of_role.exit ], [ 0, %member_can_set_role.exit ], [ 0, %is_admin_of_role.exit.thread ], [ 0, %14 ], [ 0, %16 ], [ 0, %22 ], [ 0, %24 ], [ 0, %30 ], [ 0, %32 ]
  ret i32 %.0
}